target datalayout = "e-m:e-p270:32:32-p271:32:32-p272:64:64-i64:64-i128:128-f80:128-n8:16:32:64-S128"
target triple = "x86_64-pc-linux-gnu"

%struct.user = type { ptr, i32, ptr, ptr, ptr }

; Function Attrs: nounwind uwtable
define dso_local void @ACLFreeUser(ptr noundef %0) #0 {
  %2 = alloca ptr, align 8
  store ptr %0, ptr %2, align 8, !tbaa !32
  %3 = load ptr, ptr %2, align 8, !tbaa !32
  %4 = getelementptr inbounds nuw %struct.user, ptr %3, i32 0, i32 0
  %5 = load ptr, ptr %4, align 8, !tbaa !89
  call void @sdsfree(ptr noundef %5)
  %6 = load ptr, ptr %2, align 8, !tbaa !32
  %7 = getelementptr inbounds nuw %struct.user, ptr %6, i32 0, i32 4
  %8 = load ptr, ptr %7, align 8, !tbaa !92
  %9 = icmp ne ptr %8, null
  br i1 %9, label %10, label %16

10:                                               ; preds = %1
  %11 = load ptr, ptr %2, align 8, !tbaa !32
  %12 = getelementptr inbounds nuw %struct.user, ptr %11, i32 0, i32 4
  %13 = load ptr, ptr %12, align 8, !tbaa !92
  call void @decrRefCount(ptr noundef %13)
  %14 = load ptr, ptr %2, align 8, !tbaa !32
  %15 = getelementptr inbounds nuw %struct.user, ptr %14, i32 0, i32 4
  store ptr null, ptr %15, align 8, !tbaa !92
  br label %16

16:                                               ; preds = %10, %1
  %17 = load ptr, ptr %2, align 8, !tbaa !32
  %18 = getelementptr inbounds nuw %struct.user, ptr %17, i32 0, i32 2
  %19 = load ptr, ptr %18, align 8, !tbaa !91
  call void @listRelease(ptr noundef %19)
  %20 = load ptr, ptr %2, align 8, !tbaa !32
  %21 = getelementptr inbounds nuw %struct.user, ptr %20, i32 0, i32 3
  %22 = load ptr, ptr %21, align 8, !tbaa !81
  call void @listRelease(ptr noundef %22)
  %23 = load ptr, ptr %2, align 8, !tbaa !32
  call void @zfree(ptr noundef %23)
  ret void
}

; Function Attrs: nounwind uwtable
define dso_local void @ACLFreeUserGeneric(ptr noundef %0) #0 {
  %2 = alloca ptr, align 8
  store ptr %0, ptr %2, align 8, !tbaa !32
  %3 = load ptr, ptr %2, align 8, !tbaa !32
  call void @ACLFreeUser(ptr noundef %3)
  ret void
}