; Function Attrs: nounwind uwtable
define dso_local void @ACLFreeUserGeneric(ptr noundef %0) #0 {
  %2 = load ptr, ptr %0, align 8, !tbaa !88
  tail call void @sdsfree(ptr noundef %2) #25
  %3 = getelementptr inbounds nuw i8, ptr %0, i64 32
  %4 = load ptr, ptr %3, align 8, !tbaa !91
  %.not.i = icmp eq ptr %4, null
  br i1 %.not.i, label %ACLFreeUser.exit, label %5

5:                                                ; preds = %1
  tail call void @decrRefCount(ptr noundef nonnull %4) #25
  store ptr null, ptr %3, align 8, !tbaa !91
  br label %ACLFreeUser.exit

ACLFreeUser.exit:                                 ; preds = %1, %5
  %6 = getelementptr inbounds nuw i8, ptr %0, i64 16
  %7 = load ptr, ptr %6, align 8, !tbaa !90
  tail call void @listRelease(ptr noundef %7) #25
  %8 = getelementptr inbounds nuw i8, ptr %0, i64 24
  %9 = load ptr, ptr %8, align 8, !tbaa !79
  tail call void @listRelease(ptr noundef %9) #25
  tail call void @zfree(ptr noundef nonnull %0) #25
  ret void
}